; Function Attrs: nounwind uwtable
define internal fastcc noundef ptr @_readSetOperationStmt() unnamed_addr #0 {
  %1 = alloca i32, align 4
  %2 = tail call noundef ptr @palloc0(i64 noundef 64) #10
  store i32 142, ptr %2, align 4
  call void @llvm.lifetime.start.p0(i64 4, ptr nonnull %1) #10
  %3 = call ptr @pg_strtok(ptr noundef nonnull %1) #10
  %4 = call ptr @pg_strtok(ptr noundef nonnull %1) #10
  %5 = call i64 @strtol(ptr noundef nonnull captures(none) %4, ptr noundef null, i32 noundef 10) #10
  %6 = trunc i64 %5 to i32
  %7 = getelementptr inbounds nuw i8, ptr %2, i64 4
  store i32 %6, ptr %7, align 4
  %8 = call ptr @pg_strtok(ptr noundef nonnull %1) #10
  %9 = call ptr @pg_strtok(ptr noundef nonnull %1) #10
  %10 = load i8, ptr %9, align 1
  %11 = icmp eq i8 %10, 116
  %12 = getelementptr inbounds nuw i8, ptr %2, i64 8
  %13 = zext i1 %11 to i8
  store i8 %13, ptr %12, align 8
  %14 = call ptr @pg_strtok(ptr noundef nonnull %1) #10
  %15 = call ptr @nodeRead(ptr noundef null, i32 noundef 0) #10
  %16 = getelementptr inbounds nuw i8, ptr %2, i64 16
  store ptr %15, ptr %16, align 8
  %17 = call ptr @pg_strtok(ptr noundef nonnull %1) #10
  %18 = call ptr @nodeRead(ptr noundef null, i32 noundef 0) #10
  %19 = getelementptr inbounds nuw i8, ptr %2, i64 24
  store ptr %18, ptr %19, align 8
  %20 = call ptr @pg_strtok(ptr noundef nonnull %1) #10
  %21 = call ptr @nodeRead(ptr noundef null, i32 noundef 0) #10
  %22 = getelementptr inbounds nuw i8, ptr %2, i64 32
  store ptr %21, ptr %22, align 8
  %23 = call ptr @pg_strtok(ptr noundef nonnull %1) #10
  %24 = call ptr @nodeRead(ptr noundef null, i32 noundef 0) #10
  %25 = getelementptr inbounds nuw i8, ptr %2, i64 40
  store ptr %24, ptr %25, align 8
  %26 = call ptr @pg_strtok(ptr noundef nonnull %1) #10
  %27 = call ptr @nodeRead(ptr noundef null, i32 noundef 0) #10
  %28 = getelementptr inbounds nuw i8, ptr %2, i64 48
  store ptr %27, ptr %28, align 8
  %29 = call ptr @pg_strtok(ptr noundef nonnull %1) #10
  %30 = call ptr @nodeRead(ptr noundef null, i32 noundef 0) #10
  %31 = getelementptr inbounds nuw i8, ptr %2, i64 56
  store ptr %30, ptr %31, align 8
  call void @llvm.lifetime.end.p0(i64 4, ptr nonnull %1) #10
  ret ptr %2
}